target datalayout = "e-m:e-p270:32:32-p271:32:32-p272:64:64-i64:64-i128:128-f80:128-n8:16:32:64-S128"
target triple = "x86_64-pc-linux-gnu"

@.str = private unnamed_addr constant [46 x i8] c"../openssl/crypto/encode_decode/encoder_lib.c\00", align 1
@__func__.bio_from_file = private unnamed_addr constant [14 x i8] c"bio_from_file\00", align 1

; Function Attrs: nounwind uwtable
define internal ptr @bio_from_file(ptr noundef %0) #0 {
  %2 = alloca ptr, align 8
  %3 = alloca ptr, align 8
  %4 = alloca ptr, align 8
  %5 = alloca i32, align 4
  store ptr %0, ptr %3, align 8, !tbaa !63
  call void @llvm.lifetime.start.p0(i64 8, ptr %4) #8
  %6 = call ptr @BIO_s_file()
  %7 = call ptr @BIO_new(ptr noundef %6)
  store ptr %7, ptr %4, align 8, !tbaa !8
  %8 = icmp eq ptr %7, null
  br i1 %8, label %9, label %10

9:                                                ; preds = %1
  call void @ERR_new()
  call void @ERR_set_debug(ptr noundef @.str, i32 noundef 99, ptr noundef @__func__.bio_from_file)
  call void (i32, i32, ptr, ...) @ERR_set_error(i32 noundef 59, i32 noundef 524295, ptr noundef null)
  store ptr null, ptr %2, align 8
  store i32 1, ptr %5, align 4
  br label %15

10:                                               ; preds = %1
  %11 = load ptr, ptr %4, align 8, !tbaa !8
  %12 = load ptr, ptr %3, align 8, !tbaa !63
  %13 = call i64 @BIO_ctrl(ptr noundef %11, i32 noundef 106, i64 noundef 0, ptr noundef %12)
  %14 = load ptr, ptr %4, align 8, !tbaa !8
  store ptr %14, ptr %2, align 8
  store i32 1, ptr %5, align 4
  br label %15

15:                                               ; preds = %10, %9
  call void @llvm.lifetime.end.p0(i64 8, ptr %4) #8
  %16 = load ptr, ptr %2, align 8
  ret ptr %16
}

; Function Attrs: nounwind uwtable
define i32 @OSSL_ENCODER_to_fp(ptr noundef %0, ptr noundef %1) #0 {
  %3 = alloca ptr, align 8
  %4 = alloca ptr, align 8
  %5 = alloca ptr, align 8
  %6 = alloca i32, align 4
  store ptr %0, ptr %3, align 8, !tbaa !3
  store ptr %1, ptr %4, align 8, !tbaa !63
  call void @llvm.lifetime.start.p0(i64 8, ptr %5) #8
  %7 = load ptr, ptr %4, align 8, !tbaa !63
  %8 = call ptr @bio_from_file(ptr noundef %7)
  store ptr %8, ptr %5, align 8, !tbaa !8
  call void @llvm.lifetime.start.p0(i64 4, ptr %6) #8
  store i32 0, ptr %6, align 4, !tbaa !32
  %9 = load ptr, ptr %5, align 8, !tbaa !8
  %10 = icmp ne ptr %9, null
  br i1 %10, label %11, label %15

11:                                               ; preds = %2
  %12 = load ptr, ptr %3, align 8, !tbaa !3
  %13 = load ptr, ptr %5, align 8, !tbaa !8
  %14 = call i32 @OSSL_ENCODER_to_bio(ptr noundef %12, ptr noundef %13)
  store i32 %14, ptr %6, align 4, !tbaa !32
  br label %15

15:                                               ; preds = %11, %2
  %16 = load ptr, ptr %5, align 8, !tbaa !8
  %17 = call i32 @BIO_free(ptr noundef %16)
  %18 = load i32, ptr %6, align 4, !tbaa !32
  call void @llvm.lifetime.end.p0(i64 4, ptr %6) #8
  call void @llvm.lifetime.end.p0(i64 8, ptr %5) #8
  ret i32 %18
}