; Function Attrs: nounwind uwtable
define range(i32 0, 2) i32 @OSSL_ENCODER_to_fp(ptr noundef %0, ptr noundef %1) local_unnamed_addr #0 {
  %3 = tail call ptr @BIO_s_file() #8
  %4 = tail call ptr @BIO_new(ptr noundef %3) #8
  %5 = icmp eq ptr %4, null
  br i1 %5, label %bio_from_file.exit.thread, label %6

bio_from_file.exit.thread:                        ; preds = %2
  tail call void @ERR_new() #8
  tail call void @ERR_set_debug(ptr noundef nonnull @.str, i32 noundef 99, ptr noundef nonnull @__func__.bio_from_file) #8
  tail call void (i32, i32, ptr, ...) @ERR_set_error(i32 noundef 59, i32 noundef 524295, ptr noundef null) #8
  br label %9

6:                                                ; preds = %2
  %7 = tail call i64 @BIO_ctrl(ptr noundef nonnull %4, i32 noundef 106, i64 noundef 0, ptr noundef %1) #8
  %8 = tail call i32 @OSSL_ENCODER_to_bio(ptr noundef %0, ptr noundef nonnull %4)
  br label %9

9:                                                ; preds = %bio_from_file.exit.thread, %6
  %.0 = phi i32 [ %8, %6 ], [ 0, %bio_from_file.exit.thread ]
  %10 = tail call i32 @BIO_free(ptr noundef %4) #8
  ret i32 %.0
}